; Function Attrs: mustprogress nofree norecurse nosync nounwind willreturn memory(read, inaccessiblemem: none) uwtable
define hidden noundef ptr @_Z11luaH_getstrP8LuaTableP7TString(ptr noundef readonly captures(none) %0, ptr noundef readonly %1) local_unnamed_addr #3 {
  %3 = getelementptr inbounds nuw i8, ptr %0, i64 32
  %4 = load ptr, ptr %3, align 8, !tbaa !17
  %5 = getelementptr inbounds nuw i8, ptr %1, i64 16
  %6 = load i32, ptr %5, align 8, !tbaa !64
  %7 = getelementptr inbounds nuw i8, ptr %0, i64 6
  %8 = load i8, ptr %7, align 2, !tbaa !22
  %9 = zext nneg i8 %8 to i32
  %notmask = shl nsw i32 -1, %9
  %10 = xor i32 %notmask, -1
  %11 = and i32 %6, %10
  %12 = zext nneg i32 %11 to i64
  %13 = getelementptr inbounds nuw %struct.LuaNode, ptr %4, i64 %12
  br label %14

14:                                               ; preds = %25, %2
  %.0 = phi ptr [ %13, %2 ], [ %28, %25 ]
  %15 = getelementptr inbounds nuw i8, ptr %.0, i64 28
  %16 = load i32, ptr %15, align 4
  %17 = and i32 %16, 15
  %18 = icmp eq i32 %17, 5
  br i1 %18, label %19, label %23

19:                                               ; preds = %14
  %20 = getelementptr inbounds nuw i8, ptr %.0, i64 16
  %21 = load ptr, ptr %20, align 8, !tbaa !16
  %22 = icmp eq ptr %21, %1
  br i1 %22, label %29, label %23

23:                                               ; preds = %19, %14
  %24 = icmp ult i32 %16, 16
  br i1 %24, label %29, label %25

25:                                               ; preds = %23
  %26 = ashr i32 %16, 4
  %27 = sext i32 %26 to i64
  %28 = getelementptr inbounds %struct.LuaNode, ptr %.0, i64 %27
  br label %14, !llvm.loop !66

29:                                               ; preds = %23, %19
  %.011 = phi ptr [ %.0, %19 ], [ @luaO_nilobject_, %23 ]
  ret ptr %.011
}